target datalayout = "e-m:e-p270:32:32-p271:32:32-p272:64:64-i64:64-i128:128-f80:128-n8:16:32:64-S128"
target triple = "x86_64-pc-linux-gnu"

%struct.qt_meta_stringdata_FilterCreate_t = type <{ [1 x %struct.QArrayData], [13 x i8], [3 x i8] }>
%struct.QArrayData = type { %"class.QtPrivate::RefCount", i32, i32, i64 }
%"class.QtPrivate::RefCount" = type { %class.QBasicAtomicInteger }
%class.QBasicAtomicInteger = type { %"struct.std::atomic" }
%"struct.std::atomic" = type { %"struct.std::__atomic_base" }
%"struct.std::__atomic_base" = type { i32 }

@.str.8 = private unnamed_addr constant [13 x i8] c"FilterPlugin\00", align 1
@.str.9 = private unnamed_addr constant [29 x i8] c"vcg.meshlab.FilterPlugin/1.0\00", align 1

; Function Attrs: mustprogress uwtable
define noundef ptr @_ZN12FilterCreate11qt_metacastEPKc(ptr noundef nonnull align 8 dereferenceable(80) %0, ptr noundef %1) unnamed_addr #2 align 2 {
  %3 = alloca ptr, align 8
  %4 = alloca ptr, align 8
  %5 = alloca ptr, align 8
  store ptr %0, ptr %4, align 8
  store ptr %1, ptr %5, align 8
  %6 = load ptr, ptr %4, align 8
  %7 = load ptr, ptr %5, align 8
  %8 = icmp ne ptr %7, null
  br i1 %8, label %10, label %9

9:                                                ; preds = %2
  store ptr null, ptr %3, align 8
  br label %30

10:                                               ; preds = %2
  %11 = load ptr, ptr %5, align 8
  %12 = call i32 @strcmp(ptr noundef %11, ptr noundef getelementptr inbounds (%struct.qt_meta_stringdata_FilterCreate_t, ptr @_ZL31qt_meta_stringdata_FilterCreate, i32 0, i32 1)) #15
  %13 = icmp ne i32 %12, 0
  br i1 %13, label %15, label %14

14:                                               ; preds = %10
  store ptr %6, ptr %3, align 8
  br label %30

15:                                               ; preds = %10
  %16 = load ptr, ptr %5, align 8
  %17 = call i32 @strcmp(ptr noundef %16, ptr noundef @.str.8) #15
  %18 = icmp ne i32 %17, 0
  br i1 %18, label %21, label %19

19:                                               ; preds = %15
  %20 = getelementptr inbounds i8, ptr %6, i64 16
  store ptr %20, ptr %3, align 8
  br label %30

21:                                               ; preds = %15
  %22 = load ptr, ptr %5, align 8
  %23 = call i32 @strcmp(ptr noundef %22, ptr noundef @.str.9) #15
  %24 = icmp ne i32 %23, 0
  br i1 %24, label %27, label %25

25:                                               ; preds = %21
  %26 = getelementptr inbounds i8, ptr %6, i64 16
  store ptr %26, ptr %3, align 8
  br label %30

27:                                               ; preds = %21
  %28 = load ptr, ptr %5, align 8
  %29 = call noundef ptr @_ZN7QObject11qt_metacastEPKc(ptr noundef nonnull align 8 dereferenceable(16) %6, ptr noundef %28)
  store ptr %29, ptr %3, align 8
  br label %30

30:                                               ; preds = %27, %25, %19, %14, %9
  %31 = load ptr, ptr %3, align 8
  ret ptr %31
}