; Function Attrs: mustprogress uwtable
define noundef ptr @_ZN12FilterCreate11qt_metacastEPKc(ptr noundef nonnull align 8 dereferenceable(80) %0, ptr noundef %1) unnamed_addr #2 align 2 {
  %.not = icmp eq ptr %1, null
  br i1 %.not, label %15, label %3

3:                                                ; preds = %2
  %4 = tail call i32 @strcmp(ptr noundef nonnull dereferenceable(1) %1, ptr noundef nonnull dereferenceable(13) getelementptr inbounds ({ [1 x { { { { i32 } } }, i32, i8, i8, i8, i8, i64 }], [13 x i8] }, ptr @_ZL31qt_meta_stringdata_FilterCreate, i64 0, i32 1)) #23
  %.not8 = icmp eq i32 %4, 0
  br i1 %.not8, label %15, label %5

5:                                                ; preds = %3
  %6 = tail call i32 @strcmp(ptr noundef nonnull dereferenceable(1) %1, ptr noundef nonnull dereferenceable(13) @.str.8) #23
  %.not9 = icmp eq i32 %6, 0
  br i1 %.not9, label %7, label %9

7:                                                ; preds = %5
  %8 = getelementptr inbounds i8, ptr %0, i64 16
  br label %15

9:                                                ; preds = %5
  %10 = tail call i32 @strcmp(ptr noundef nonnull dereferenceable(1) %1, ptr noundef nonnull dereferenceable(29) @.str.9) #23
  %.not10 = icmp eq i32 %10, 0
  br i1 %.not10, label %11, label %13

11:                                               ; preds = %9
  %12 = getelementptr inbounds i8, ptr %0, i64 16
  br label %15

13:                                               ; preds = %9
  %14 = tail call noundef ptr @_ZN7QObject11qt_metacastEPKc(ptr noundef nonnull align 8 dereferenceable(16) %0, ptr noundef nonnull %1)
  br label %15

15:                                               ; preds = %3, %2, %13, %11, %7
  %.0 = phi ptr [ %14, %13 ], [ %12, %11 ], [ %8, %7 ], [ null, %2 ], [ %0, %3 ]
  ret ptr %.0
}